target datalayout = "e-m:e-p270:32:32-p271:32:32-p272:64:64-i64:64-i128:128-f80:128-n8:16:32:64-S128"
target triple = "x86_64-pc-linux-gnu"

%struct.pack_info = type { float, i32, i32, i8, i32, ptr, ptr, i32 }

@.str.1 = private unnamed_addr constant [3 x i8] c"%d\00", align 1
@Verbose = external global i8, align 1
@stderr = external global ptr, align 8
@.str.13 = private unnamed_addr constant [9 x i8] c"packmode\00", align 1
@.str.14 = private unnamed_addr constant [5 x i8] c"pack\00", align 1
@.str.15 = private unnamed_addr constant [13 x i8] c"  margin %u\0A\00", align 1

; Function Attrs: nounwind uwtable
define i32 @getPackModeInfo(ptr noundef %0, i32 noundef %1, ptr noundef %2) #0 {
  %4 = alloca ptr, align 8
  %5 = alloca i32, align 4
  %6 = alloca ptr, align 8
  store ptr %0, ptr %4, align 8, !tbaa !10
  store i32 %1, ptr %5, align 4, !tbaa !35
  store ptr %2, ptr %6, align 8, !tbaa !12
  %7 = load ptr, ptr %4, align 8, !tbaa !10
  %8 = call ptr @agget(ptr noundef %7, ptr noundef @.str.13)
  %9 = load i32, ptr %5, align 4, !tbaa !35
  %10 = load ptr, ptr %6, align 8, !tbaa !12
  %11 = call i32 @parsePackModeInfo(ptr noundef %8, i32 noundef %9, ptr noundef %10)
  ret i32 %11
}

; Function Attrs: nounwind uwtable
define i32 @getPack(ptr noundef %0, i32 noundef %1, i32 noundef %2) #0 {
  %4 = alloca ptr, align 8
  %5 = alloca i32, align 4
  %6 = alloca i32, align 4
  %7 = alloca ptr, align 8
  %8 = alloca i32, align 4
  %9 = alloca i32, align 4
  store ptr %0, ptr %4, align 8, !tbaa !10
  store i32 %1, ptr %5, align 4, !tbaa !35
  store i32 %2, ptr %6, align 4, !tbaa !35
  call void @llvm.lifetime.start.p0(i64 8, ptr %7) #12
  call void @llvm.lifetime.start.p0(i64 4, ptr %8) #12
  call void @llvm.lifetime.start.p0(i64 4, ptr %9) #12
  %10 = load i32, ptr %5, align 4, !tbaa !35
  store i32 %10, ptr %9, align 4, !tbaa !35
  %11 = load ptr, ptr %4, align 8, !tbaa !10
  %12 = call ptr @agget(ptr noundef %11, ptr noundef @.str.14)
  store ptr %12, ptr %7, align 8, !tbaa !33
  %13 = icmp ne ptr %12, null
  br i1 %13, label %14, label %37

14:                                               ; preds = %3
  %15 = load ptr, ptr %7, align 8, !tbaa !33
  %16 = call i32 (ptr, ptr, ...) @__isoc99_sscanf(ptr noundef %15, ptr noundef @.str.1, ptr noundef %8) #12
  %17 = icmp eq i32 %16, 1
  br i1 %17, label %18, label %23

18:                                               ; preds = %14
  %19 = load i32, ptr %8, align 4, !tbaa !35
  %20 = icmp sge i32 %19, 0
  br i1 %20, label %21, label %23

21:                                               ; preds = %18
  %22 = load i32, ptr %8, align 4, !tbaa !35
  store i32 %22, ptr %9, align 4, !tbaa !35
  br label %36

23:                                               ; preds = %18, %14
  %24 = load ptr, ptr %7, align 8, !tbaa !33
  %25 = load i8, ptr %24, align 1, !tbaa !66
  %26 = sext i8 %25 to i32
  %27 = icmp eq i32 %26, 116
  br i1 %27, label %33, label %28

28:                                               ; preds = %23
  %29 = load ptr, ptr %7, align 8, !tbaa !33
  %30 = load i8, ptr %29, align 1, !tbaa !66
  %31 = sext i8 %30 to i32
  %32 = icmp eq i32 %31, 84
  br i1 %32, label %33, label %35

33:                                               ; preds = %28, %23
  %34 = load i32, ptr %6, align 4, !tbaa !35
  store i32 %34, ptr %9, align 4, !tbaa !35
  br label %35

35:                                               ; preds = %33, %28
  br label %36

36:                                               ; preds = %35, %21
  br label %37

37:                                               ; preds = %36, %3
  %38 = load i32, ptr %9, align 4, !tbaa !35
  call void @llvm.lifetime.end.p0(i64 4, ptr %9) #12
  call void @llvm.lifetime.end.p0(i64 4, ptr %8) #12
  call void @llvm.lifetime.end.p0(i64 8, ptr %7) #12
  ret i32 %38
}

; Function Attrs: nounwind uwtable
define i32 @getPackInfo(ptr noundef %0, i32 noundef %1, i32 noundef %2, ptr noundef %3) #0 {
  %5 = alloca ptr, align 8
  %6 = alloca i32, align 4
  %7 = alloca i32, align 4
  %8 = alloca ptr, align 8
  store ptr %0, ptr %5, align 8, !tbaa !10
  store i32 %1, ptr %6, align 4, !tbaa !35
  store i32 %2, ptr %7, align 4, !tbaa !35
  store ptr %3, ptr %8, align 8, !tbaa !12
  %9 = load ptr, ptr %5, align 8, !tbaa !10
  %10 = load i32, ptr %7, align 4, !tbaa !35
  %11 = load i32, ptr %7, align 4, !tbaa !35
  %12 = call i32 @getPack(ptr noundef %9, i32 noundef %10, i32 noundef %11)
  %13 = load ptr, ptr %8, align 8, !tbaa !12
  %14 = getelementptr inbounds nuw %struct.pack_info, ptr %13, i32 0, i32 2
  store i32 %12, ptr %14, align 8, !tbaa !71
  %15 = load i8, ptr @Verbose, align 1, !tbaa !66
  %16 = icmp ne i8 %15, 0
  br i1 %16, label %17, label %23

17:                                               ; preds = %4
  %18 = load ptr, ptr @stderr, align 8, !tbaa !67
  %19 = load ptr, ptr %8, align 8, !tbaa !12
  %20 = getelementptr inbounds nuw %struct.pack_info, ptr %19, i32 0, i32 2
  %21 = load i32, ptr %20, align 8, !tbaa !71
  %22 = call i32 (ptr, ptr, ...) @fprintf(ptr noundef %18, ptr noundef @.str.15, i32 noundef %21) #12
  br label %23

23:                                               ; preds = %17, %4
  %24 = load ptr, ptr %8, align 8, !tbaa !12
  %25 = getelementptr inbounds nuw %struct.pack_info, ptr %24, i32 0, i32 3
  store i8 0, ptr %25, align 4, !tbaa !151
  %26 = load ptr, ptr %8, align 8, !tbaa !12
  %27 = getelementptr inbounds nuw %struct.pack_info, ptr %26, i32 0, i32 5
  store ptr null, ptr %27, align 8, !tbaa !37
  %28 = load ptr, ptr %5, align 8, !tbaa !10
  %29 = load i32, ptr %6, align 4, !tbaa !35
  %30 = load ptr, ptr %8, align 8, !tbaa !12
  %31 = call i32 @getPackModeInfo(ptr noundef %28, i32 noundef %29, ptr noundef %30)
  %32 = load ptr, ptr %8, align 8, !tbaa !12
  %33 = getelementptr inbounds nuw %struct.pack_info, ptr %32, i32 0, i32 4
  %34 = load i32, ptr %33, align 8, !tbaa !15
  ret i32 %34
}