; Function Attrs: nounwind uwtable
define i32 @getPackInfo(ptr noundef %0, i32 noundef %1, i32 noundef %2, ptr noundef captures(none) initializes((4, 13), (16, 20), (24, 44)) %3) local_unnamed_addr #0 {
  %5 = alloca i32, align 4
  call void @llvm.lifetime.start.p0(i64 4, ptr nonnull %5) #19
  %6 = tail call ptr @agget(ptr noundef %0, ptr noundef nonnull @.str.14) #19
  %.not.i = icmp eq ptr %6, null
  br i1 %.not.i, label %getPack.exit, label %7

7:                                                ; preds = %4
  %8 = call i32 (ptr, ptr, ...) @__isoc99_sscanf(ptr noundef nonnull %6, ptr noundef nonnull @.str.1, ptr noundef nonnull %5) #19
  %9 = icmp eq i32 %8, 1
  %10 = load i32, ptr %5, align 4
  %11 = icmp sgt i32 %10, -1
  %or.cond.i = select i1 %9, i1 %11, i1 false
  %spec.select = select i1 %or.cond.i, i32 %10, i32 %2
  br label %getPack.exit

getPack.exit:                                     ; preds = %7, %4
  %.0.i = phi i32 [ %2, %4 ], [ %spec.select, %7 ]
  call void @llvm.lifetime.end.p0(i64 4, ptr nonnull %5) #19
  %12 = getelementptr inbounds nuw i8, ptr %3, i64 8
  store i32 %.0.i, ptr %12, align 8, !tbaa !50
  %13 = load i8, ptr @Verbose, align 1, !tbaa !47
  %.not = icmp eq i8 %13, 0
  br i1 %.not, label %17, label %14

14:                                               ; preds = %getPack.exit
  %15 = load ptr, ptr @stderr, align 8, !tbaa !14
  %16 = call i32 (ptr, ptr, ...) @fprintf(ptr noundef %15, ptr noundef nonnull @.str.15, i32 noundef %.0.i) #20
  br label %17

17:                                               ; preds = %14, %getPack.exit
  %18 = getelementptr inbounds nuw i8, ptr %3, i64 12
  store i8 0, ptr %18, align 4, !tbaa !57
  %19 = getelementptr inbounds nuw i8, ptr %3, i64 24
  store ptr null, ptr %19, align 8, !tbaa !13
  %20 = call ptr @agget(ptr noundef %0, ptr noundef nonnull @.str.13) #19
  %21 = call i32 @parsePackModeInfo(ptr noundef %20, i32 noundef %1, ptr noundef nonnull %3)
  %22 = getelementptr inbounds nuw i8, ptr %3, i64 16
  %23 = load i32, ptr %22, align 8, !tbaa !3
  ret i32 %23
}